; Function Attrs: mustprogress nounwind uwtable
define hidden void @_ZN2cv4epnpD2Ev(ptr noundef nonnull readonly align 8 captures(none) dereferenceable(352) %0) unnamed_addr #5 align 2 personality ptr @__gxx_personality_v0 {
  %2 = getelementptr inbounds nuw i8, ptr %0, i64 336
  %3 = load ptr, ptr %2, align 8, !tbaa !58
  %.not = icmp eq ptr %3, null
  br i1 %.not, label %5, label %4

4:                                                ; preds = %1
  tail call void @_ZdaPv(ptr noundef nonnull %3) #23
  br label %5

5:                                                ; preds = %4, %1
  %6 = getelementptr inbounds nuw i8, ptr %0, i64 344
  %7 = load ptr, ptr %6, align 8, !tbaa !59
  %.not2 = icmp eq ptr %7, null
  br i1 %.not2, label %9, label %8

8:                                                ; preds = %5
  tail call void @_ZdaPv(ptr noundef nonnull %7) #23
  br label %9

9:                                                ; preds = %8, %5
  %10 = getelementptr inbounds nuw i8, ptr %0, i64 104
  %11 = load ptr, ptr %10, align 8, !tbaa !36
  %.not.i.i.i = icmp eq ptr %11, null
  br i1 %.not.i.i.i, label %_ZNSt6vectorIdSaIdEED2Ev.exit, label %12

12:                                               ; preds = %9
  tail call void @_ZdlPv(ptr noundef nonnull %11) #23
  br label %_ZNSt6vectorIdSaIdEED2Ev.exit

_ZNSt6vectorIdSaIdEED2Ev.exit:                    ; preds = %9, %12
  %13 = getelementptr inbounds nuw i8, ptr %0, i64 80
  %14 = load ptr, ptr %13, align 8, !tbaa !36
  %.not.i.i.i3 = icmp eq ptr %14, null
  br i1 %.not.i.i.i3, label %_ZNSt6vectorIdSaIdEED2Ev.exit4, label %15

15:                                               ; preds = %_ZNSt6vectorIdSaIdEED2Ev.exit
  tail call void @_ZdlPv(ptr noundef nonnull %14) #23
  br label %_ZNSt6vectorIdSaIdEED2Ev.exit4

_ZNSt6vectorIdSaIdEED2Ev.exit4:                   ; preds = %_ZNSt6vectorIdSaIdEED2Ev.exit, %15
  %16 = getelementptr inbounds nuw i8, ptr %0, i64 56
  %17 = load ptr, ptr %16, align 8, !tbaa !36
  %.not.i.i.i5 = icmp eq ptr %17, null
  br i1 %.not.i.i.i5, label %_ZNSt6vectorIdSaIdEED2Ev.exit6, label %18

18:                                               ; preds = %_ZNSt6vectorIdSaIdEED2Ev.exit4
  tail call void @_ZdlPv(ptr noundef nonnull %17) #23
  br label %_ZNSt6vectorIdSaIdEED2Ev.exit6

_ZNSt6vectorIdSaIdEED2Ev.exit6:                   ; preds = %_ZNSt6vectorIdSaIdEED2Ev.exit4, %18
  %19 = getelementptr inbounds nuw i8, ptr %0, i64 32
  %20 = load ptr, ptr %19, align 8, !tbaa !36
  %.not.i.i.i7 = icmp eq ptr %20, null
  br i1 %.not.i.i.i7, label %_ZNSt6vectorIdSaIdEED2Ev.exit8, label %21

21:                                               ; preds = %_ZNSt6vectorIdSaIdEED2Ev.exit6
  tail call void @_ZdlPv(ptr noundef nonnull %20) #23
  br label %_ZNSt6vectorIdSaIdEED2Ev.exit8

_ZNSt6vectorIdSaIdEED2Ev.exit8:                   ; preds = %_ZNSt6vectorIdSaIdEED2Ev.exit6, %21
  ret void
}